target datalayout = "e-m:e-p270:32:32-p271:32:32-p272:64:64-i64:64-i128:128-f80:128-n8:16:32:64-S128"
target triple = "x86_64-pc-linux-gnu"

%struct.re_pattern_buffer = type { ptr, i32, i32, i32, i32, i32, i32, i32, i32, i32, i32, i32, i32, i32, ptr, ptr, ptr, ptr, i32, i32, i32, i32, i64, i64, i32, ptr, ptr, [256 x i8], ptr, ptr, i64, i64, i64, ptr }
%struct.re_registers = type { i32, i32, ptr, ptr }
%struct.OnigMatchArg = type { ptr, i64, i32, ptr, ptr, ptr, i64, ptr, i32, i64, i32, i64, i64, ptr, i64, ptr }

; Function Attrs: nounwind sspstrong uwtable
define dso_local void @onig_region_clear(ptr noundef %0) #0 {
  %2 = alloca ptr, align 8
  %3 = alloca i32, align 4
  store ptr %0, ptr %2, align 8, !tbaa !24
  call void @llvm.lifetime.start.p0(i64 4, ptr %3) #12
  store i32 0, ptr %3, align 4, !tbaa !26
  br label %4

4:                                                ; preds = %23, %1
  %5 = load i32, ptr %3, align 4, !tbaa !26
  %6 = load ptr, ptr %2, align 8, !tbaa !24
  %7 = getelementptr inbounds nuw %struct.re_registers, ptr %6, i32 0, i32 1
  %8 = load i32, ptr %7, align 4, !tbaa !27
  %9 = icmp slt i32 %5, %8
  br i1 %9, label %10, label %26

10:                                               ; preds = %4
  %11 = load ptr, ptr %2, align 8, !tbaa !24
  %12 = getelementptr inbounds nuw %struct.re_registers, ptr %11, i32 0, i32 3
  %13 = load ptr, ptr %12, align 8, !tbaa !29
  %14 = load i32, ptr %3, align 4, !tbaa !26
  %15 = sext i32 %14 to i64
  %16 = getelementptr i64, ptr %13, i64 %15
  store i64 -1, ptr %16, align 8, !tbaa !12
  %17 = load ptr, ptr %2, align 8, !tbaa !24
  %18 = getelementptr inbounds nuw %struct.re_registers, ptr %17, i32 0, i32 2
  %19 = load ptr, ptr %18, align 8, !tbaa !30
  %20 = load i32, ptr %3, align 4, !tbaa !26
  %21 = sext i32 %20 to i64
  %22 = getelementptr i64, ptr %19, i64 %21
  store i64 -1, ptr %22, align 8, !tbaa !12
  br label %23

23:                                               ; preds = %10
  %24 = load i32, ptr %3, align 4, !tbaa !26
  %25 = add i32 %24, 1
  store i32 %25, ptr %3, align 4, !tbaa !26
  br label %4, !llvm.loop !31

26:                                               ; preds = %4
  call void @llvm.lifetime.end.p0(i64 4, ptr %3) #12
  ret void
}

; Function Attrs: nounwind sspstrong uwtable
define internal i32 @onig_region_resize_clear(ptr noundef %0, i32 noundef %1) #0 {
  %3 = alloca i32, align 4
  %4 = alloca ptr, align 8
  %5 = alloca i32, align 4
  %6 = alloca i32, align 4
  %7 = alloca i32, align 4
  store ptr %0, ptr %4, align 8, !tbaa !24
  store i32 %1, ptr %5, align 4, !tbaa !26
  call void @llvm.lifetime.start.p0(i64 4, ptr %6) #12
  %8 = load ptr, ptr %4, align 8, !tbaa !24
  %9 = load i32, ptr %5, align 4, !tbaa !26
  %10 = call i32 @onig_region_resize(ptr noundef %8, i32 noundef %9)
  store i32 %10, ptr %6, align 4, !tbaa !26
  %11 = load i32, ptr %6, align 4, !tbaa !26
  %12 = icmp ne i32 %11, 0
  br i1 %12, label %13, label %15

13:                                               ; preds = %2
  %14 = load i32, ptr %6, align 4, !tbaa !26
  store i32 %14, ptr %3, align 4
  store i32 1, ptr %7, align 4
  br label %17

15:                                               ; preds = %2
  %16 = load ptr, ptr %4, align 8, !tbaa !24
  call void @onig_region_clear(ptr noundef %16)
  store i32 0, ptr %3, align 4
  store i32 1, ptr %7, align 4
  br label %17

17:                                               ; preds = %15, %13
  call void @llvm.lifetime.end.p0(i64 4, ptr %6) #12
  %18 = load i32, ptr %3, align 4
  ret i32 %18
}

; Function Attrs: nounwind sspstrong uwtable
define dso_local i64 @onig_match(ptr noundef %0, ptr noundef %1, ptr noundef %2, ptr noundef %3, ptr noundef %4, i32 noundef %5) #0 {
  %7 = alloca ptr, align 8
  %8 = alloca ptr, align 8
  %9 = alloca ptr, align 8
  %10 = alloca ptr, align 8
  %11 = alloca ptr, align 8
  %12 = alloca i32, align 4
  %13 = alloca i64, align 8
  %14 = alloca ptr, align 8
  %15 = alloca %struct.OnigMatchArg, align 8
  store ptr %0, ptr %7, align 8, !tbaa !7
  store ptr %1, ptr %8, align 8, !tbaa !22
  store ptr %2, ptr %9, align 8, !tbaa !22
  store ptr %3, ptr %10, align 8, !tbaa !22
  store ptr %4, ptr %11, align 8, !tbaa !24
  store i32 %5, ptr %12, align 4, !tbaa !26
  call void @llvm.lifetime.start.p0(i64 8, ptr %13) #12
  call void @llvm.lifetime.start.p0(i64 8, ptr %14) #12
  call void @llvm.lifetime.start.p0(i64 128, ptr %15) #12
  br label %16

16:                                               ; preds = %6
  %17 = getelementptr inbounds nuw %struct.OnigMatchArg, ptr %15, i32 0, i32 0
  store ptr null, ptr %17, align 8, !tbaa !36
  %18 = load i32, ptr %12, align 4, !tbaa !26
  %19 = getelementptr inbounds nuw %struct.OnigMatchArg, ptr %15, i32 0, i32 2
  store i32 %18, ptr %19, align 8, !tbaa !38
  %20 = load ptr, ptr %11, align 8, !tbaa !24
  %21 = getelementptr inbounds nuw %struct.OnigMatchArg, ptr %15, i32 0, i32 3
  store ptr %20, ptr %21, align 8, !tbaa !39
  %22 = load ptr, ptr %10, align 8, !tbaa !22
  %23 = getelementptr inbounds nuw %struct.OnigMatchArg, ptr %15, i32 0, i32 4
  store ptr %22, ptr %23, align 8, !tbaa !40
  %24 = load ptr, ptr %10, align 8, !tbaa !22
  %25 = getelementptr inbounds nuw %struct.OnigMatchArg, ptr %15, i32 0, i32 5
  store ptr %24, ptr %25, align 8, !tbaa !41
  %26 = getelementptr inbounds nuw %struct.OnigMatchArg, ptr %15, i32 0, i32 6
  store i64 -1, ptr %26, align 8, !tbaa !42
  %27 = getelementptr inbounds nuw %struct.OnigMatchArg, ptr %15, i32 0, i32 8
  store i32 0, ptr %27, align 8, !tbaa !43
  %28 = getelementptr inbounds nuw %struct.OnigMatchArg, ptr %15, i32 0, i32 9
  store i64 0, ptr %28, align 8, !tbaa !44
  br label %29

29:                                               ; preds = %16
  %30 = getelementptr inbounds nuw %struct.OnigMatchArg, ptr %15, i32 0, i32 10
  store i32 1, ptr %30, align 8, !tbaa !45
  %31 = getelementptr inbounds nuw %struct.OnigMatchArg, ptr %15, i32 0, i32 11
  store i64 0, ptr %31, align 8, !tbaa !46
  %32 = getelementptr inbounds nuw %struct.OnigMatchArg, ptr %15, i32 0, i32 12
  store i64 1, ptr %32, align 8, !tbaa !47
  %33 = getelementptr inbounds nuw %struct.OnigMatchArg, ptr %15, i32 0, i32 13
  store ptr null, ptr %33, align 8, !tbaa !48
  %34 = getelementptr inbounds nuw %struct.OnigMatchArg, ptr %15, i32 0, i32 14
  store i64 0, ptr %34, align 8, !tbaa !49
  %35 = getelementptr inbounds nuw %struct.OnigMatchArg, ptr %15, i32 0, i32 15
  store ptr null, ptr %35, align 8, !tbaa !50
  br label %36

36:                                               ; preds = %29
  br label %37

37:                                               ; preds = %36
  br label %38

38:                                               ; preds = %37
  br label %39

39:                                               ; preds = %38
  %40 = load ptr, ptr %11, align 8, !tbaa !24
  %41 = icmp ne ptr %40, null
  br i1 %41, label %42, label %50

42:                                               ; preds = %39
  %43 = load ptr, ptr %11, align 8, !tbaa !24
  %44 = load ptr, ptr %7, align 8, !tbaa !7
  %45 = getelementptr inbounds nuw %struct.re_pattern_buffer, ptr %44, i32 0, i32 3
  %46 = load i32, ptr %45, align 8, !tbaa !51
  %47 = add i32 %46, 1
  %48 = call i32 @onig_region_resize_clear(ptr noundef %43, i32 noundef %47)
  %49 = sext i32 %48 to i64
  store i64 %49, ptr %13, align 8, !tbaa !12
  br label %51

50:                                               ; preds = %39
  store i64 0, ptr %13, align 8, !tbaa !12
  br label %51

51:                                               ; preds = %50, %42
  %52 = load i64, ptr %13, align 8, !tbaa !12
  %53 = icmp eq i64 %52, 0
  br i1 %53, label %54, label %68

54:                                               ; preds = %51
  %55 = load ptr, ptr %7, align 8, !tbaa !7
  %56 = getelementptr inbounds nuw %struct.re_pattern_buffer, ptr %55, i32 0, i32 15
  %57 = load ptr, ptr %56, align 8, !tbaa !52
  %58 = load ptr, ptr %8, align 8, !tbaa !22
  %59 = load ptr, ptr %10, align 8, !tbaa !22
  %60 = load ptr, ptr %9, align 8, !tbaa !22
  %61 = call ptr @onigenc_get_prev_char_head(ptr noundef %57, ptr noundef %58, ptr noundef %59, ptr noundef %60)
  store ptr %61, ptr %14, align 8, !tbaa !22
  %62 = load ptr, ptr %7, align 8, !tbaa !7
  %63 = load ptr, ptr %8, align 8, !tbaa !22
  %64 = load ptr, ptr %9, align 8, !tbaa !22
  %65 = load ptr, ptr %10, align 8, !tbaa !22
  %66 = load ptr, ptr %14, align 8, !tbaa !22
  %67 = call i64 @match_at(ptr noundef %62, ptr noundef %63, ptr noundef %64, ptr noundef %65, ptr noundef %66, ptr noundef %15)
  store i64 %67, ptr %13, align 8, !tbaa !12
  br label %68

68:                                               ; preds = %54, %51
  br label %69

69:                                               ; preds = %68
  %70 = getelementptr inbounds nuw %struct.OnigMatchArg, ptr %15, i32 0, i32 0
  %71 = load ptr, ptr %70, align 8, !tbaa !36
  call void @free(ptr noundef %71) #12
  br label %72

72:                                               ; preds = %69
  %73 = getelementptr inbounds nuw %struct.OnigMatchArg, ptr %15, i32 0, i32 13
  %74 = load ptr, ptr %73, align 8, !tbaa !48
  call void @free(ptr noundef %74) #12
  %75 = getelementptr inbounds nuw %struct.OnigMatchArg, ptr %15, i32 0, i32 15
  %76 = load ptr, ptr %75, align 8, !tbaa !50
  call void @free(ptr noundef %76) #12
  %77 = getelementptr inbounds nuw %struct.OnigMatchArg, ptr %15, i32 0, i32 13
  store ptr null, ptr %77, align 8, !tbaa !48
  %78 = getelementptr inbounds nuw %struct.OnigMatchArg, ptr %15, i32 0, i32 15
  store ptr null, ptr %78, align 8, !tbaa !50
  br label %79

79:                                               ; preds = %72
  br label %80

80:                                               ; preds = %79
  br label %81

81:                                               ; preds = %80
  br label %82

82:                                               ; preds = %81
  %83 = load i64, ptr %13, align 8, !tbaa !12
  call void @llvm.lifetime.end.p0(i64 128, ptr %15) #12
  call void @llvm.lifetime.end.p0(i64 8, ptr %14) #12
  call void @llvm.lifetime.end.p0(i64 8, ptr %13) #12
  ret i64 %83
}