; Function Attrs: nounwind sspstrong uwtable
define dso_local i64 @onig_match(ptr noundef %0, ptr noundef %1, ptr noundef %2, ptr noundef %3, ptr noundef %4, i32 noundef %5) local_unnamed_addr #0 {
  %7 = alloca %struct.OnigMatchArg, align 8
  call void @llvm.lifetime.start.p0(i64 128, ptr nonnull %7) #21
  store ptr null, ptr %7, align 8, !tbaa !30
  %8 = getelementptr inbounds nuw i8, ptr %7, i64 16
  store i32 %5, ptr %8, align 8, !tbaa !33
  %9 = getelementptr inbounds nuw i8, ptr %7, i64 24
  store ptr %4, ptr %9, align 8, !tbaa !34
  %10 = getelementptr inbounds nuw i8, ptr %7, i64 32
  store ptr %3, ptr %10, align 8, !tbaa !35
  %11 = getelementptr inbounds nuw i8, ptr %7, i64 40
  store ptr %3, ptr %11, align 8, !tbaa !36
  %12 = getelementptr inbounds nuw i8, ptr %7, i64 48
  store i64 -1, ptr %12, align 8, !tbaa !37
  %13 = getelementptr inbounds nuw i8, ptr %7, i64 64
  store i32 0, ptr %13, align 8, !tbaa !38
  %14 = getelementptr inbounds nuw i8, ptr %7, i64 72
  store i64 0, ptr %14, align 8, !tbaa !39
  %15 = getelementptr inbounds nuw i8, ptr %7, i64 80
  store i32 1, ptr %15, align 8, !tbaa !40
  %16 = getelementptr inbounds nuw i8, ptr %7, i64 88
  store i64 0, ptr %16, align 8, !tbaa !41
  %17 = getelementptr inbounds nuw i8, ptr %7, i64 96
  store i64 1, ptr %17, align 8, !tbaa !42
  %18 = getelementptr inbounds nuw i8, ptr %7, i64 104
  %.not = icmp eq ptr %4, null
  call void @llvm.memset.p0.i64(ptr noundef nonnull align 8 dereferenceable(24) %18, i8 0, i64 24, i1 false)
  br i1 %.not, label %.thread, label %19

19:                                               ; preds = %6
  %20 = getelementptr inbounds nuw i8, ptr %0, i64 16
  %21 = load i32, ptr %20, align 8, !tbaa !43
  %22 = add i32 %21, 1
  %23 = tail call i32 @onig_region_resize(ptr noundef nonnull %4, i32 noundef %22)
  %.not.i = icmp eq i32 %23, 0
  br i1 %.not.i, label %24, label %35

24:                                               ; preds = %19
  %25 = getelementptr inbounds nuw i8, ptr %4, i64 4
  %26 = load i32, ptr %25, align 4, !tbaa !20
  %27 = icmp sgt i32 %26, 0
  br i1 %27, label %.lr.ph.i.i, label %.thread

.lr.ph.i.i:                                       ; preds = %24
  %28 = getelementptr inbounds nuw i8, ptr %4, i64 16
  %29 = load ptr, ptr %28, align 8, !tbaa !23
  %30 = getelementptr inbounds nuw i8, ptr %4, i64 8
  %31 = load ptr, ptr %30, align 8, !tbaa !24
  %wide.trip.count.i.i = zext nneg i32 %26 to i64
  br label %32

32:                                               ; preds = %32, %.lr.ph.i.i
  %indvars.iv.i.i = phi i64 [ 0, %.lr.ph.i.i ], [ %indvars.iv.next.i.i, %32 ]
  %33 = getelementptr i64, ptr %29, i64 %indvars.iv.i.i
  store i64 -1, ptr %33, align 8, !tbaa !19
  %34 = getelementptr i64, ptr %31, i64 %indvars.iv.i.i
  store i64 -1, ptr %34, align 8, !tbaa !19
  %indvars.iv.next.i.i = add nuw nsw i64 %indvars.iv.i.i, 1
  %exitcond.not.i.i = icmp eq i64 %indvars.iv.next.i.i, %wide.trip.count.i.i
  br i1 %exitcond.not.i.i, label %.thread, label %32, !llvm.loop !25

35:                                               ; preds = %19
  %36 = sext i32 %23 to i64
  br label %41

.thread:                                          ; preds = %32, %24, %6
  %37 = getelementptr inbounds nuw i8, ptr %0, i64 72
  %38 = load ptr, ptr %37, align 8, !tbaa !44
  %39 = tail call ptr @onigenc_get_prev_char_head(ptr noundef %38, ptr noundef %1, ptr noundef %3, ptr noundef %2) #21
  %40 = call fastcc i64 @match_at(ptr noundef %0, ptr noundef %1, ptr noundef %2, ptr noundef %3, ptr noundef %39, ptr noundef %7)
  %.pre = load ptr, ptr %7, align 8, !tbaa !30
  br label %41

41:                                               ; preds = %35, %.thread
  %42 = phi ptr [ %.pre, %.thread ], [ null, %35 ]
  %.1 = phi i64 [ %40, %.thread ], [ %36, %35 ]
  %43 = getelementptr inbounds nuw i8, ptr %7, i64 120
  call void @free(ptr noundef %42) #21
  %44 = load ptr, ptr %18, align 8, !tbaa !45
  call void @free(ptr noundef %44) #21
  %45 = load ptr, ptr %43, align 8, !tbaa !46
  call void @free(ptr noundef %45) #21
  call void @llvm.lifetime.end.p0(i64 128, ptr nonnull %7) #21
  ret i64 %.1
}